target datalayout = "e-m:e-p270:32:32-p271:32:32-p272:64:64-i64:64-i128:128-f80:128-n8:16:32:64-S128"
target triple = "x86_64-pc-linux-gnu"

%struct.LLVMAttributes = type { i32, i32, i32, i32, i32, i32, i32, i32, i32, i32, i32, i32, i32, i32, i32, i32, i32, i32, i32, i32, i32, i32, i32, i32, i32, i32, i32, i32 }
%union.SourceSpan = type { i64 }
%struct.GenContext_ = type { i8, ptr, ptr, ptr, ptr, ptr, ptr, ptr, ptr, ptr, ptr, ptr, ptr, ptr, ptr, ptr, ptr, ptr, ptr, ptr, ptr, ptr, ptr, ptr, ptr, ptr, ptr, ptr, ptr, ptr, ptr, ptr, ptr, %struct.anon.85, i32, i32, %struct.DebugContext, ptr, ptr, ptr, %struct.BEValue, i8, %union.SourceSpan, ptr, ptr, ptr, ptr }
%struct.anon.85 = type { ptr, ptr, ptr }
%struct.DebugContext = type { i16, ptr, ptr, %struct.DebugFile_, ptr, ptr, ptr, ptr }
%struct.DebugFile_ = type { i16, ptr }
%struct.BEValue = type { i8, i32, ptr, ptr, ptr }
%struct.ABIArgInfo_ = type { i32, i8, %struct.anon.23, %union.anon.24 }
%struct.anon.23 = type { i8 }
%union.anon.24 = type { %struct.anon.27 }
%struct.anon.27 = type { i8, i8, ptr, ptr }
%struct.anon.28 = type { i32, ptr }

@attribute_id = dso_local global %struct.LLVMAttributes zeroinitializer, align 4

; Function Attrs: nounwind uwtable
define dso_local void @llvm_attribute_add_int(ptr noundef %0, ptr noundef %1, i32 noundef %2, i64 noundef %3, i32 noundef %4) #0 {
  %6 = alloca ptr, align 8
  %7 = alloca ptr, align 8
  %8 = alloca i32, align 4
  %9 = alloca i64, align 8
  %10 = alloca i32, align 4
  %11 = alloca ptr, align 8
  store ptr %0, ptr %6, align 8
  store ptr %1, ptr %7, align 8
  store i32 %2, ptr %8, align 4
  store i64 %3, ptr %9, align 8
  store i32 %4, ptr %10, align 4
  %12 = load ptr, ptr %6, align 8
  %13 = getelementptr inbounds %struct.GenContext_, ptr %12, i32 0, i32 5
  %14 = load ptr, ptr %13, align 8
  %15 = load i32, ptr %8, align 4
  %16 = load i64, ptr %9, align 8
  %17 = call ptr @LLVMCreateEnumAttribute(ptr noundef %14, i32 noundef %15, i64 noundef %16)
  store ptr %17, ptr %11, align 8
  %18 = load ptr, ptr %7, align 8
  %19 = load i32, ptr %10, align 4
  %20 = load ptr, ptr %11, align 8
  call void @LLVMAddAttributeAtIndex(ptr noundef %18, i32 noundef %19, ptr noundef %20)
  ret void
}

; Function Attrs: nounwind uwtable
define dso_local void @llvm_attribute_add_type(ptr noundef %0, ptr noundef %1, i32 noundef %2, ptr noundef %3, i32 noundef %4) #0 {
  %6 = alloca ptr, align 8
  %7 = alloca ptr, align 8
  %8 = alloca i32, align 4
  %9 = alloca ptr, align 8
  %10 = alloca i32, align 4
  %11 = alloca ptr, align 8
  store ptr %0, ptr %6, align 8
  store ptr %1, ptr %7, align 8
  store i32 %2, ptr %8, align 4
  store ptr %3, ptr %9, align 8
  store i32 %4, ptr %10, align 4
  %12 = load ptr, ptr %6, align 8
  %13 = getelementptr inbounds %struct.GenContext_, ptr %12, i32 0, i32 5
  %14 = load ptr, ptr %13, align 8
  %15 = load i32, ptr %8, align 4
  %16 = load ptr, ptr %9, align 8
  %17 = call ptr @LLVMCreateTypeAttribute(ptr noundef %14, i32 noundef %15, ptr noundef %16)
  store ptr %17, ptr %11, align 8
  %18 = load ptr, ptr %7, align 8
  %19 = load i32, ptr %10, align 4
  %20 = load ptr, ptr %11, align 8
  call void @LLVMAddAttributeAtIndex(ptr noundef %18, i32 noundef %19, ptr noundef %20)
  ret void
}

; Function Attrs: nounwind uwtable
define dso_local void @llvm_attribute_add_range(ptr noundef %0, ptr noundef %1, i32 noundef %2, i32 noundef %3, i32 noundef %4) #0 {
  %6 = alloca ptr, align 8
  %7 = alloca ptr, align 8
  %8 = alloca i32, align 4
  %9 = alloca i32, align 4
  %10 = alloca i32, align 4
  %11 = alloca i32, align 4
  store ptr %0, ptr %6, align 8
  store ptr %1, ptr %7, align 8
  store i32 %2, ptr %8, align 4
  store i32 %3, ptr %9, align 4
  store i32 %4, ptr %10, align 4
  %12 = load i32, ptr %9, align 4
  store i32 %12, ptr %11, align 4
  br label %13

13:                                               ; preds = %22, %5
  %14 = load i32, ptr %11, align 4
  %15 = load i32, ptr %10, align 4
  %16 = icmp sle i32 %14, %15
  br i1 %16, label %17, label %25

17:                                               ; preds = %13
  %18 = load ptr, ptr %6, align 8
  %19 = load ptr, ptr %7, align 8
  %20 = load i32, ptr %8, align 4
  %21 = load i32, ptr %11, align 4
  call void @llvm_attribute_add_int(ptr noundef %18, ptr noundef %19, i32 noundef %20, i64 noundef 0, i32 noundef %21)
  br label %22

22:                                               ; preds = %17
  %23 = load i32, ptr %11, align 4
  %24 = add nsw i32 %23, 1
  store i32 %24, ptr %11, align 4
  br label %13, !llvm.loop !37

25:                                               ; preds = %13
  ret void
}

; Function Attrs: nounwind uwtable
define dso_local void @llvm_attribute_add(ptr noundef %0, ptr noundef %1, i32 noundef %2, i32 noundef %3) #0 {
  %5 = alloca ptr, align 8
  %6 = alloca ptr, align 8
  %7 = alloca i32, align 4
  %8 = alloca i32, align 4
  store ptr %0, ptr %5, align 8
  store ptr %1, ptr %6, align 8
  store i32 %2, ptr %7, align 4
  store i32 %3, ptr %8, align 4
  %9 = load ptr, ptr %5, align 8
  %10 = load ptr, ptr %6, align 8
  %11 = load i32, ptr %7, align 4
  %12 = load i32, ptr %8, align 4
  call void @llvm_attribute_add_int(ptr noundef %9, ptr noundef %10, i32 noundef %11, i64 noundef 0, i32 noundef %12)
  ret void
}

; Function Attrs: nounwind uwtable
define internal void @llvm_emit_param_attributes(ptr noundef %0, ptr noundef %1, ptr noundef %2, i1 noundef zeroext %3, i32 noundef %4, i32 noundef %5) #0 {
  %7 = alloca ptr, align 8
  %8 = alloca ptr, align 8
  %9 = alloca ptr, align 8
  %10 = alloca i8, align 1
  %11 = alloca i32, align 4
  %12 = alloca i32, align 4
  store ptr %0, ptr %7, align 8
  store ptr %1, ptr %8, align 8
  store ptr %2, ptr %9, align 8
  %13 = zext i1 %3 to i8
  store i8 %13, ptr %10, align 1
  store i32 %4, ptr %11, align 4
  store i32 %5, ptr %12, align 4
  %14 = load ptr, ptr %9, align 8
  %15 = getelementptr inbounds %struct.ABIArgInfo_, ptr %14, i32 0, i32 2
  %16 = load i8, ptr %15, align 1
  %17 = lshr i8 %16, 1
  %18 = and i8 %17, 1
  %19 = trunc i8 %18 to i1
  br i1 %19, label %20, label %25

20:                                               ; preds = %6
  %21 = load ptr, ptr %7, align 8
  %22 = load ptr, ptr %8, align 8
  %23 = load i32, ptr getelementptr inbounds (%struct.LLVMAttributes, ptr @attribute_id, i32 0, i32 27), align 4
  %24 = load i32, ptr %11, align 4
  call void @llvm_attribute_add(ptr noundef %21, ptr noundef %22, i32 noundef %23, i32 noundef %24)
  br label %25

25:                                               ; preds = %20, %6
  %26 = load ptr, ptr %9, align 8
  %27 = getelementptr inbounds %struct.ABIArgInfo_, ptr %26, i32 0, i32 2
  %28 = load i8, ptr %27, align 1
  %29 = lshr i8 %28, 2
  %30 = and i8 %29, 1
  %31 = trunc i8 %30 to i1
  br i1 %31, label %32, label %37

32:                                               ; preds = %25
  %33 = load ptr, ptr %7, align 8
  %34 = load ptr, ptr %8, align 8
  %35 = load i32, ptr getelementptr inbounds (%struct.LLVMAttributes, ptr @attribute_id, i32 0, i32 21), align 4
  %36 = load i32, ptr %11, align 4
  call void @llvm_attribute_add(ptr noundef %33, ptr noundef %34, i32 noundef %35, i32 noundef %36)
  br label %37

37:                                               ; preds = %32, %25
  %38 = load ptr, ptr %9, align 8
  %39 = getelementptr inbounds %struct.ABIArgInfo_, ptr %38, i32 0, i32 2
  %40 = load i8, ptr %39, align 1
  %41 = and i8 %40, 1
  %42 = trunc i8 %41 to i1
  br i1 %42, label %43, label %49

43:                                               ; preds = %37
  %44 = load ptr, ptr %7, align 8
  %45 = load ptr, ptr %8, align 8
  %46 = load i32, ptr getelementptr inbounds (%struct.LLVMAttributes, ptr @attribute_id, i32 0, i32 9), align 4
  %47 = load i32, ptr %11, align 4
  %48 = load i32, ptr %12, align 4
  call void @llvm_attribute_add_range(ptr noundef %44, ptr noundef %45, i32 noundef %46, i32 noundef %47, i32 noundef %48)
  br label %49

49:                                               ; preds = %43, %37
  %50 = load ptr, ptr %9, align 8
  %51 = getelementptr inbounds %struct.ABIArgInfo_, ptr %50, i32 0, i32 1
  %52 = load i8, ptr %51, align 4
  %53 = and i8 %52, 63
  %54 = zext i8 %53 to i32
  switch i32 %54, label %109 [
    i32 8, label %55
    i32 0, label %55
    i32 5, label %55
    i32 3, label %55
    i32 4, label %55
    i32 2, label %55
    i32 1, label %55
    i32 6, label %55
    i32 7, label %56
  ]

55:                                               ; preds = %49, %49, %49, %49, %49, %49, %49, %49
  br label %109

56:                                               ; preds = %49
  %57 = load i8, ptr %10, align 1
  %58 = trunc i8 %57 to i1
  br i1 %58, label %59, label %80

59:                                               ; preds = %56
  %60 = load ptr, ptr %7, align 8
  %61 = load ptr, ptr %8, align 8
  %62 = load i32, ptr getelementptr inbounds (%struct.LLVMAttributes, ptr @attribute_id, i32 0, i32 22), align 4
  %63 = load ptr, ptr %7, align 8
  %64 = load ptr, ptr %9, align 8
  %65 = getelementptr inbounds %struct.ABIArgInfo_, ptr %64, i32 0, i32 3
  %66 = getelementptr inbounds %struct.anon.28, ptr %65, i32 0, i32 1
  %67 = load ptr, ptr %66, align 8
  %68 = call ptr @llvm_get_type(ptr noundef %63, ptr noundef %67)
  call void @llvm_attribute_add_type(ptr noundef %60, ptr noundef %61, i32 noundef %62, ptr noundef %68, i32 noundef 1)
  %69 = load ptr, ptr %7, align 8
  %70 = load ptr, ptr %8, align 8
  %71 = load i32, ptr getelementptr inbounds (%struct.LLVMAttributes, ptr @attribute_id, i32 0, i32 13), align 4
  call void @llvm_attribute_add(ptr noundef %69, ptr noundef %70, i32 noundef %71, i32 noundef 1)
  %72 = load ptr, ptr %7, align 8
  %73 = load ptr, ptr %8, align 8
  %74 = load i32, ptr getelementptr inbounds (%struct.LLVMAttributes, ptr @attribute_id, i32 0, i32 1), align 4
  %75 = load ptr, ptr %9, align 8
  %76 = getelementptr inbounds %struct.ABIArgInfo_, ptr %75, i32 0, i32 3
  %77 = getelementptr inbounds %struct.anon.28, ptr %76, i32 0, i32 0
  %78 = load i32, ptr %77, align 8
  %79 = zext i32 %78 to i64
  call void @llvm_attribute_add_int(ptr noundef %72, ptr noundef %73, i32 noundef %74, i64 noundef %79, i32 noundef 1)
  br label %108

80:                                               ; preds = %56
  %81 = load ptr, ptr %9, align 8
  %82 = getelementptr inbounds %struct.ABIArgInfo_, ptr %81, i32 0, i32 2
  %83 = load i8, ptr %82, align 1
  %84 = lshr i8 %83, 4
  %85 = and i8 %84, 1
  %86 = trunc i8 %85 to i1
  br i1 %86, label %87, label %98

87:                                               ; preds = %80
  %88 = load ptr, ptr %7, align 8
  %89 = load ptr, ptr %8, align 8
  %90 = load i32, ptr getelementptr inbounds (%struct.LLVMAttributes, ptr @attribute_id, i32 0, i32 4), align 4
  %91 = load ptr, ptr %7, align 8
  %92 = load ptr, ptr %9, align 8
  %93 = getelementptr inbounds %struct.ABIArgInfo_, ptr %92, i32 0, i32 3
  %94 = getelementptr inbounds %struct.anon.28, ptr %93, i32 0, i32 1
  %95 = load ptr, ptr %94, align 8
  %96 = call ptr @llvm_get_type(ptr noundef %91, ptr noundef %95)
  %97 = load i32, ptr %11, align 4
  call void @llvm_attribute_add_type(ptr noundef %88, ptr noundef %89, i32 noundef %90, ptr noundef %96, i32 noundef %97)
  br label %98

98:                                               ; preds = %87, %80
  %99 = load ptr, ptr %7, align 8
  %100 = load ptr, ptr %8, align 8
  %101 = load i32, ptr getelementptr inbounds (%struct.LLVMAttributes, ptr @attribute_id, i32 0, i32 1), align 4
  %102 = load ptr, ptr %9, align 8
  %103 = getelementptr inbounds %struct.ABIArgInfo_, ptr %102, i32 0, i32 3
  %104 = getelementptr inbounds %struct.anon.28, ptr %103, i32 0, i32 0
  %105 = load i32, ptr %104, align 8
  %106 = zext i32 %105 to i64
  %107 = load i32, ptr %11, align 4
  call void @llvm_attribute_add_int(ptr noundef %99, ptr noundef %100, i32 noundef %101, i64 noundef %106, i32 noundef %107)
  br label %108

108:                                              ; preds = %98, %59
  br label %109

109:                                              ; preds = %108, %55, %49
  ret void
}