; Function Attrs: nounwind uwtable
define internal fastcc void @llvm_emit_param_attributes(ptr noundef %0, ptr noundef %1, ptr nocapture noundef readonly %2, i1 noundef zeroext %3, i32 noundef %4, i32 noundef %5) unnamed_addr #0 {
  %7 = getelementptr inbounds i8, ptr %2, i64 5
  %8 = load i8, ptr %7, align 1
  %9 = and i8 %8, 2
  %.not = icmp eq i8 %9, 0
  br i1 %.not, label %15, label %10

10:                                               ; preds = %6
  %11 = load i32, ptr getelementptr inbounds (%struct.LLVMAttributes, ptr @attribute_id, i64 0, i32 27), align 4
  %12 = getelementptr inbounds i8, ptr %0, i64 40
  %13 = load ptr, ptr %12, align 8
  %14 = tail call ptr @LLVMCreateEnumAttribute(ptr noundef %13, i32 noundef %11, i64 noundef 0) #10
  tail call void @LLVMAddAttributeAtIndex(ptr noundef %1, i32 noundef %4, ptr noundef %14) #10
  %.pre = load i8, ptr %7, align 1
  br label %15

15:                                               ; preds = %10, %6
  %16 = phi i8 [ %.pre, %10 ], [ %8, %6 ]
  %17 = and i8 %16, 4
  %.not33 = icmp eq i8 %17, 0
  br i1 %.not33, label %23, label %18

18:                                               ; preds = %15
  %19 = load i32, ptr getelementptr inbounds (%struct.LLVMAttributes, ptr @attribute_id, i64 0, i32 21), align 4
  %20 = getelementptr inbounds i8, ptr %0, i64 40
  %21 = load ptr, ptr %20, align 8
  %22 = tail call ptr @LLVMCreateEnumAttribute(ptr noundef %21, i32 noundef %19, i64 noundef 0) #10
  tail call void @LLVMAddAttributeAtIndex(ptr noundef %1, i32 noundef %4, ptr noundef %22) #10
  %.pre35 = load i8, ptr %7, align 1
  br label %23

23:                                               ; preds = %18, %15
  %24 = phi i8 [ %.pre35, %18 ], [ %16, %15 ]
  %25 = trunc i8 %24 to i1
  br i1 %25, label %26, label %llvm_attribute_add_range.exit

26:                                               ; preds = %23
  %27 = load i32, ptr getelementptr inbounds (%struct.LLVMAttributes, ptr @attribute_id, i64 0, i32 9), align 4
  %.not7.i = icmp sgt i32 %4, %5
  br i1 %.not7.i, label %llvm_attribute_add_range.exit, label %.lr.ph.i

.lr.ph.i:                                         ; preds = %26
  %28 = getelementptr inbounds i8, ptr %0, i64 40
  br label %29

29:                                               ; preds = %29, %.lr.ph.i
  %.08.i = phi i32 [ %4, %.lr.ph.i ], [ %32, %29 ]
  %30 = load ptr, ptr %28, align 8
  %31 = tail call ptr @LLVMCreateEnumAttribute(ptr noundef %30, i32 noundef %27, i64 noundef 0) #10
  tail call void @LLVMAddAttributeAtIndex(ptr noundef %1, i32 noundef %.08.i, ptr noundef %31) #10
  %32 = add i32 %.08.i, 1
  %exitcond.not.i = icmp eq i32 %.08.i, %5
  br i1 %exitcond.not.i, label %llvm_attribute_add_range.exit, label %29, !llvm.loop !13

llvm_attribute_add_range.exit:                    ; preds = %29, %26, %23
  %33 = getelementptr inbounds i8, ptr %2, i64 4
  %34 = load i8, ptr %33, align 4
  %35 = and i8 %34, 63
  %cond = icmp eq i8 %35, 7
  br i1 %cond, label %36, label %73

36:                                               ; preds = %llvm_attribute_add_range.exit
  br i1 %3, label %37, label %54

37:                                               ; preds = %36
  %38 = load i32, ptr getelementptr inbounds (%struct.LLVMAttributes, ptr @attribute_id, i64 0, i32 22), align 4
  %39 = getelementptr inbounds i8, ptr %2, i64 8
  %40 = getelementptr inbounds i8, ptr %2, i64 16
  %41 = load ptr, ptr %40, align 8
  %42 = tail call ptr @llvm_get_type(ptr noundef %0, ptr noundef %41) #10
  %43 = getelementptr inbounds i8, ptr %0, i64 40
  %44 = load ptr, ptr %43, align 8
  %45 = tail call ptr @LLVMCreateTypeAttribute(ptr noundef %44, i32 noundef %38, ptr noundef %42) #10
  tail call void @LLVMAddAttributeAtIndex(ptr noundef %1, i32 noundef 1, ptr noundef %45) #10
  %46 = load i32, ptr getelementptr inbounds (%struct.LLVMAttributes, ptr @attribute_id, i64 0, i32 13), align 4
  %47 = load ptr, ptr %43, align 8
  %48 = tail call ptr @LLVMCreateEnumAttribute(ptr noundef %47, i32 noundef %46, i64 noundef 0) #10
  tail call void @LLVMAddAttributeAtIndex(ptr noundef %1, i32 noundef 1, ptr noundef %48) #10
  %49 = load i32, ptr getelementptr inbounds (%struct.LLVMAttributes, ptr @attribute_id, i64 0, i32 1), align 4
  %50 = load i32, ptr %39, align 8
  %51 = zext i32 %50 to i64
  %52 = load ptr, ptr %43, align 8
  %53 = tail call ptr @LLVMCreateEnumAttribute(ptr noundef %52, i32 noundef %49, i64 noundef %51) #10
  tail call void @LLVMAddAttributeAtIndex(ptr noundef %1, i32 noundef 1, ptr noundef %53) #10
  br label %73

54:                                               ; preds = %36
  %55 = load i8, ptr %7, align 1
  %56 = and i8 %55, 16
  %.not34 = icmp eq i8 %56, 0
  br i1 %.not34, label %65, label %57

57:                                               ; preds = %54
  %58 = load i32, ptr getelementptr inbounds (%struct.LLVMAttributes, ptr @attribute_id, i64 0, i32 4), align 4
  %59 = getelementptr inbounds i8, ptr %2, i64 16
  %60 = load ptr, ptr %59, align 8
  %61 = tail call ptr @llvm_get_type(ptr noundef %0, ptr noundef %60) #10
  %62 = getelementptr inbounds i8, ptr %0, i64 40
  %63 = load ptr, ptr %62, align 8
  %64 = tail call ptr @LLVMCreateTypeAttribute(ptr noundef %63, i32 noundef %58, ptr noundef %61) #10
  tail call void @LLVMAddAttributeAtIndex(ptr noundef %1, i32 noundef %4, ptr noundef %64) #10
  br label %65

65:                                               ; preds = %57, %54
  %66 = load i32, ptr getelementptr inbounds (%struct.LLVMAttributes, ptr @attribute_id, i64 0, i32 1), align 4
  %67 = getelementptr inbounds i8, ptr %2, i64 8
  %68 = load i32, ptr %67, align 8
  %69 = zext i32 %68 to i64
  %70 = getelementptr inbounds i8, ptr %0, i64 40
  %71 = load ptr, ptr %70, align 8
  %72 = tail call ptr @LLVMCreateEnumAttribute(ptr noundef %71, i32 noundef %66, i64 noundef %69) #10
  tail call void @LLVMAddAttributeAtIndex(ptr noundef %1, i32 noundef %4, ptr noundef %72) #10
  br label %73

73:                                               ; preds = %llvm_attribute_add_range.exit, %37, %65
  ret void
}